; Function Attrs: nounwind uwtable
define void @Mux_ManFree(ptr noundef %0) local_unnamed_addr #0 {
  %2 = getelementptr inbounds nuw i8, ptr %0, i64 8
  %3 = load ptr, ptr %2, align 8
  tail call void @Abc_NamStop(ptr noundef %3) #26
  %4 = getelementptr inbounds nuw i8, ptr %0, i64 16
  %5 = load ptr, ptr %4, align 8
  %6 = load i32, ptr %5, align 8
  %7 = icmp sgt i32 %6, 0
  br i1 %7, label %.lr.ph.i.i, label %._crit_edge.i.i

.lr.ph.i.i:                                       ; preds = %1
  %8 = getelementptr inbounds nuw i8, ptr %5, i64 8
  br label %9

9:                                                ; preds = %17, %.lr.ph.i.i
  %10 = phi i32 [ %6, %.lr.ph.i.i ], [ %18, %17 ]
  %indvars.iv.i.i = phi i64 [ 0, %.lr.ph.i.i ], [ %indvars.iv.next.i.i, %17 ]
  %11 = load ptr, ptr %8, align 8
  %12 = getelementptr inbounds nuw %struct.Vec_Int_t_, ptr %11, i64 %indvars.iv.i.i, i32 2
  %13 = load ptr, ptr %12, align 8
  %.not15.i.i = icmp eq ptr %13, null
  br i1 %.not15.i.i, label %17, label %14

14:                                               ; preds = %9
  tail call void @free(ptr noundef nonnull %13) #26
  %15 = load ptr, ptr %8, align 8
  %16 = getelementptr inbounds nuw %struct.Vec_Int_t_, ptr %15, i64 %indvars.iv.i.i, i32 2
  store ptr null, ptr %16, align 8
  %.pre.i.i = load i32, ptr %5, align 8
  br label %17

17:                                               ; preds = %14, %9
  %18 = phi i32 [ %.pre.i.i, %14 ], [ %10, %9 ]
  %indvars.iv.next.i.i = add nuw nsw i64 %indvars.iv.i.i, 1
  %19 = sext i32 %18 to i64
  %20 = icmp slt i64 %indvars.iv.next.i.i, %19
  br i1 %20, label %9, label %._crit_edge.i.i, !llvm.loop !19

._crit_edge.i.i:                                  ; preds = %17, %1
  %21 = getelementptr inbounds nuw i8, ptr %5, i64 8
  %22 = load ptr, ptr %21, align 8
  %.not.i.i = icmp eq ptr %22, null
  br i1 %.not.i.i, label %Vec_WecFree.exit, label %23

23:                                               ; preds = %._crit_edge.i.i
  tail call void @free(ptr noundef nonnull %22) #26
  br label %Vec_WecFree.exit

Vec_WecFree.exit:                                 ; preds = %._crit_edge.i.i, %23
  tail call void @free(ptr noundef nonnull %5) #26
  %.not = icmp eq ptr %0, null
  br i1 %.not, label %25, label %24

24:                                               ; preds = %Vec_WecFree.exit
  tail call void @free(ptr noundef nonnull %0) #26
  br label %25

25:                                               ; preds = %Vec_WecFree.exit, %24
  ret void
}